target datalayout = "e-m:e-p270:32:32-p271:32:32-p272:64:64-i64:64-i128:128-f80:128-n8:16:32:64-S128"
target triple = "x86_64-pc-linux-gnu"

%struct.RString = type { %struct.RBasic, i64, %union.anon }
%struct.RBasic = type { i64, i64 }
%union.anon = type { %struct.anon }
%struct.anon = type { ptr, %union.anon.0 }
%union.anon.0 = type { i64 }
%struct.anon.1 = type { [1 x i8] }
%struct.rb_printf_sfile = type { ptr, i64, i16, i16, %struct.rb_printf_sbuf, ptr, ptr }
%struct.rb_printf_sbuf = type { ptr, i64 }
%struct.rb_printf_buffer_extra = type { %struct.rb_printf_sfile, i64 }

; Function Attrs: inlinehint nounwind sspstrong memory(argmem: readwrite, inaccessiblemem: readwrite) uwtable
define internal void @rbimpl_fl_set_raw_raw(ptr noundef %0, i64 noundef %1) #7 {
  %3 = alloca ptr, align 8
  %4 = alloca i64, align 8
  store ptr %0, ptr %3, align 8, !tbaa !89
  store i64 %1, ptr %4, align 8, !tbaa !14
  %5 = load i64, ptr %4, align 8, !tbaa !14
  %6 = load ptr, ptr %3, align 8, !tbaa !89
  %7 = getelementptr inbounds nuw %struct.RBasic, ptr %6, i32 0, i32 0
  %8 = load i64, ptr %7, align 8, !tbaa !91
  %9 = or i64 %8, %5
  store i64 %9, ptr %7, align 8, !tbaa !91
  ret void
}

; Function Attrs: inlinehint nounwind sspstrong memory(argmem: readwrite, inaccessiblemem: readwrite) uwtable
define internal void @rbimpl_fl_unset_raw_raw(ptr noundef %0, i64 noundef %1) #7 {
  %3 = alloca ptr, align 8
  %4 = alloca i64, align 8
  store ptr %0, ptr %3, align 8, !tbaa !89
  store i64 %1, ptr %4, align 8, !tbaa !14
  %5 = load i64, ptr %4, align 8, !tbaa !14
  %6 = xor i64 %5, -1
  %7 = load ptr, ptr %3, align 8, !tbaa !89
  %8 = getelementptr inbounds nuw %struct.RBasic, ptr %7, i32 0, i32 0
  %9 = load i64, ptr %8, align 8, !tbaa !91
  %10 = and i64 %9, %6
  store i64 %10, ptr %8, align 8, !tbaa !91
  ret void
}

; Function Attrs: inlinehint nounwind sspstrong willreturn memory(read) uwtable
define internal i64 @RSTRING_LEN(i64 noundef %0) #5 {
  %2 = alloca i64, align 8
  store i64 %0, ptr %2, align 8, !tbaa !14
  %3 = load i64, ptr %2, align 8, !tbaa !14
  %4 = inttoptr i64 %3 to ptr
  %5 = getelementptr inbounds nuw %struct.RString, ptr %4, i32 0, i32 1
  %6 = load i64, ptr %5, align 8, !tbaa !49
  ret i64 %6
}

; Function Attrs: inlinehint nounwind sspstrong willreturn memory(read) uwtable
define internal zeroext i1 @RB_FL_ANY_RAW(i64 noundef %0, i64 noundef %1) #5 {
  %3 = alloca i64, align 8
  %4 = alloca i64, align 8
  store i64 %0, ptr %3, align 8, !tbaa !14
  store i64 %1, ptr %4, align 8, !tbaa !14
  %5 = load i64, ptr %3, align 8, !tbaa !14
  %6 = load i64, ptr %4, align 8, !tbaa !14
  %7 = call i64 @RB_FL_TEST_RAW(i64 noundef %5, i64 noundef %6) #27
  %8 = icmp ne i64 %7, 0
  ret i1 %8
}

; Function Attrs: inlinehint nounwind sspstrong uwtable
define internal void @RB_FL_SET_RAW(i64 noundef %0, i64 noundef %1) #4 {
  %3 = alloca i64, align 8
  %4 = alloca i64, align 8
  store i64 %0, ptr %3, align 8, !tbaa !14
  store i64 %1, ptr %4, align 8, !tbaa !14
  %5 = load i64, ptr %3, align 8, !tbaa !14
  %6 = inttoptr i64 %5 to ptr
  %7 = load i64, ptr %4, align 8, !tbaa !14
  call void @rbimpl_fl_set_raw_raw(ptr noundef %6, i64 noundef %7) #28
  ret void
}

; Function Attrs: inlinehint nounwind sspstrong uwtable
define internal void @RB_FL_UNSET_RAW(i64 noundef %0, i64 noundef %1) #4 {
  %3 = alloca i64, align 8
  %4 = alloca i64, align 8
  store i64 %0, ptr %3, align 8, !tbaa !14
  store i64 %1, ptr %4, align 8, !tbaa !14
  %5 = load i64, ptr %3, align 8, !tbaa !14
  %6 = inttoptr i64 %5 to ptr
  %7 = load i64, ptr %4, align 8, !tbaa !14
  call void @rbimpl_fl_unset_raw_raw(ptr noundef %6, i64 noundef %7) #28
  ret void
}

; Function Attrs: inlinehint nounwind sspstrong willreturn memory(read, argmem: readwrite) uwtable
define internal void @rbimpl_rstring_getmem(ptr dead_on_unwind noalias writable sret(%struct.RString) align 8 %0, i64 noundef %1) #15 {
  %3 = alloca i64, align 8
  store i64 %1, ptr %3, align 8, !tbaa !14
  %4 = load i64, ptr %3, align 8, !tbaa !14
  %5 = call zeroext i1 @RB_FL_ANY_RAW(i64 noundef %4, i64 noundef 8192) #27
  br i1 %5, label %6, label %9

6:                                                ; preds = %2
  %7 = load i64, ptr %3, align 8, !tbaa !14
  %8 = inttoptr i64 %7 to ptr
  call void @llvm.memcpy.p0.p0.i64(ptr align 8 %0, ptr align 8 %8, i64 40, i1 false), !tbaa.struct !64
  br label %20

9:                                                ; preds = %2
  %10 = load i64, ptr %3, align 8, !tbaa !14
  %11 = call i64 @RSTRING_LEN(i64 noundef %10) #27
  %12 = getelementptr inbounds nuw %struct.RString, ptr %0, i32 0, i32 1
  store i64 %11, ptr %12, align 8, !tbaa !49
  %13 = load i64, ptr %3, align 8, !tbaa !14
  %14 = inttoptr i64 %13 to ptr
  %15 = getelementptr inbounds nuw %struct.RString, ptr %14, i32 0, i32 2
  %16 = getelementptr inbounds nuw %struct.anon.1, ptr %15, i32 0, i32 0
  %17 = getelementptr inbounds [1 x i8], ptr %16, i64 0, i64 0
  %18 = getelementptr inbounds nuw %struct.RString, ptr %0, i32 0, i32 2
  %19 = getelementptr inbounds nuw %struct.anon, ptr %18, i32 0, i32 0
  store ptr %17, ptr %19, align 8, !tbaa !20
  br label %20

20:                                               ; preds = %9, %6
  ret void
}

; Function Attrs: inlinehint nounwind sspstrong willreturn memory(read) uwtable
define internal i64 @RB_FL_TEST_RAW(i64 noundef %0, i64 noundef %1) #5 {
  %3 = alloca i64, align 8
  %4 = alloca i64, align 8
  store i64 %0, ptr %3, align 8, !tbaa !14
  store i64 %1, ptr %4, align 8, !tbaa !14
  %5 = load i64, ptr %3, align 8, !tbaa !14
  %6 = inttoptr i64 %5 to ptr
  %7 = getelementptr inbounds nuw %struct.RBasic, ptr %6, i32 0, i32 0
  %8 = load i64, ptr %7, align 8, !tbaa !91
  %9 = load i64, ptr %4, align 8, !tbaa !14
  %10 = and i64 %8, %9
  ret i64 %10
}

; Function Attrs: inlinehint nounwind sspstrong uwtable
define internal void @RB_ENC_CODERANGE_SET(i64 noundef %0, i32 noundef %1) #4 {
  %3 = alloca i64, align 8
  %4 = alloca i32, align 4
  store i64 %0, ptr %3, align 8, !tbaa !14
  store i32 %1, ptr %4, align 4, !tbaa !7
  %5 = load i64, ptr %3, align 8, !tbaa !14
  call void @RB_FL_UNSET_RAW(i64 noundef %5, i64 noundef 3145728)
  %6 = load i64, ptr %3, align 8, !tbaa !14
  %7 = load i32, ptr %4, align 4, !tbaa !7
  %8 = zext i32 %7 to i64
  call void @RB_FL_SET_RAW(i64 noundef %6, i64 noundef %8)
  ret void
}

; Function Attrs: inlinehint nounwind sspstrong uwtable
define internal void @RBASIC_SET_CLASS_RAW(i64 noundef %0, i64 noundef %1) #4 {
  %3 = alloca i64, align 8
  %4 = alloca i64, align 8
  %5 = alloca ptr, align 8
  store i64 %0, ptr %3, align 8, !tbaa !14
  store i64 %1, ptr %4, align 8, !tbaa !14
  call void @llvm.lifetime.start.p0(i64 8, ptr %5) #26
  %6 = load i64, ptr %3, align 8, !tbaa !14
  %7 = inttoptr i64 %6 to ptr
  %8 = getelementptr inbounds nuw %struct.RBasic, ptr %7, i32 0, i32 1
  store ptr %8, ptr %5, align 8, !tbaa !11
  %9 = load i64, ptr %4, align 8, !tbaa !14
  %10 = load ptr, ptr %5, align 8, !tbaa !11
  store i64 %9, ptr %10, align 8, !tbaa !14
  call void @llvm.lifetime.end.p0(i64 8, ptr %5) #26
  ret void
}

; Function Attrs: inlinehint nounwind sspstrong uwtable
define internal void @RBASIC_CLEAR_CLASS(i64 noundef %0) #4 {
  %2 = alloca i64, align 8
  store i64 %0, ptr %2, align 8, !tbaa !14
  %3 = load i64, ptr %2, align 8, !tbaa !14
  call void @RBASIC_SET_CLASS_RAW(i64 noundef %3, i64 noundef 0)
  ret void
}

; Function Attrs: inlinehint nounwind sspstrong uwtable
define internal ptr @RSTRING_PTR(i64 noundef %0) #4 {
  %2 = alloca i64, align 8
  %3 = alloca ptr, align 8
  %4 = alloca %struct.RString, align 8
  store i64 %0, ptr %2, align 8, !tbaa !14
  call void @llvm.lifetime.start.p0(i64 8, ptr %3) #26
  %5 = load i64, ptr %2, align 8, !tbaa !14
  call void @rbimpl_rstring_getmem(ptr dead_on_unwind writable sret(%struct.RString) align 8 %4, i64 noundef %5) #30
  %6 = getelementptr inbounds nuw %struct.RString, ptr %4, i32 0, i32 2
  %7 = getelementptr inbounds nuw %struct.anon, ptr %6, i32 0, i32 0
  %8 = load ptr, ptr %7, align 8, !tbaa !20
  store ptr %8, ptr %3, align 8, !tbaa !18
  %9 = load ptr, ptr %3, align 8, !tbaa !18
  call void @llvm.lifetime.end.p0(i64 8, ptr %3) #26
  ret ptr %9
}

; Function Attrs: inlinehint nounwind sspstrong willreturn memory(read) uwtable
define internal i32 @RB_ENC_CODERANGE(i64 noundef %0) #5 {
  %2 = alloca i64, align 8
  %3 = alloca i64, align 8
  store i64 %0, ptr %2, align 8, !tbaa !14
  call void @llvm.lifetime.start.p0(i64 8, ptr %3) #26
  %4 = load i64, ptr %2, align 8, !tbaa !14
  %5 = call i64 @RB_FL_TEST_RAW(i64 noundef %4, i64 noundef 3145728) #27
  store i64 %5, ptr %3, align 8, !tbaa !14
  %6 = load i64, ptr %3, align 8, !tbaa !14
  %7 = trunc i64 %6 to i32
  call void @llvm.lifetime.end.p0(i64 8, ptr %3) #26
  ret i32 %7
}

; Function Attrs: nounwind sspstrong uwtable
define internal void @ruby_vsprintf0(i64 noundef %0, ptr noundef %1, ptr noundef %2, ptr noundef %3) #0 {
  %5 = alloca i64, align 8
  %6 = alloca ptr, align 8
  %7 = alloca ptr, align 8
  %8 = alloca ptr, align 8
  %9 = alloca %struct.rb_printf_buffer_extra, align 8
  %10 = alloca i64, align 8
  %11 = alloca i32, align 4
  %12 = alloca i64, align 8
  %13 = alloca i64, align 8
  store i64 %0, ptr %5, align 8, !tbaa !14
  store ptr %1, ptr %6, align 8, !tbaa !18
  store ptr %2, ptr %7, align 8, !tbaa !18
  store ptr %3, ptr %8, align 8, !tbaa !65
  call void @llvm.lifetime.start.p0(i64 64, ptr %9) #26
  call void @llvm.lifetime.start.p0(i64 8, ptr %10) #26
  %14 = load i64, ptr %5, align 8, !tbaa !14
  %15 = inttoptr i64 %14 to ptr
  %16 = getelementptr inbounds nuw %struct.RBasic, ptr %15, i32 0, i32 1
  %17 = load i64, ptr %16, align 8, !tbaa !79
  store i64 %17, ptr %10, align 8, !tbaa !14
  call void @llvm.lifetime.start.p0(i64 4, ptr %11) #26
  %18 = load i64, ptr %5, align 8, !tbaa !14
  %19 = call i32 @RB_ENC_CODERANGE(i64 noundef %18) #27
  store i32 %19, ptr %11, align 4, !tbaa !7
  call void @llvm.lifetime.start.p0(i64 8, ptr %12) #26
  store i64 0, ptr %12, align 8, !tbaa !14
  %20 = load i32, ptr %11, align 4, !tbaa !7
  %21 = icmp ne i32 %20, 0
  br i1 %21, label %22, label %29

22:                                               ; preds = %4
  %23 = load ptr, ptr %6, align 8, !tbaa !18
  %24 = load i64, ptr %5, align 8, !tbaa !14
  %25 = call ptr @RSTRING_PTR(i64 noundef %24)
  %26 = ptrtoint ptr %23 to i64
  %27 = ptrtoint ptr %25 to i64
  %28 = sub i64 %26, %27
  store i64 %28, ptr %12, align 8, !tbaa !14
  br label %29

29:                                               ; preds = %22, %4
  %30 = getelementptr inbounds nuw %struct.rb_printf_buffer_extra, ptr %9, i32 0, i32 0
  %31 = getelementptr inbounds nuw %struct.rb_printf_sfile, ptr %30, i32 0, i32 2
  store i16 520, ptr %31, align 8, !tbaa !80
  %32 = getelementptr inbounds nuw %struct.rb_printf_buffer_extra, ptr %9, i32 0, i32 0
  %33 = getelementptr inbounds nuw %struct.rb_printf_sfile, ptr %32, i32 0, i32 4
  %34 = getelementptr inbounds nuw %struct.rb_printf_sbuf, ptr %33, i32 0, i32 1
  store i64 0, ptr %34, align 8, !tbaa !82
  %35 = load i64, ptr %5, align 8, !tbaa !14
  %36 = call i64 @rb_str_capacity(i64 noundef %35) #27
  %37 = getelementptr inbounds nuw %struct.rb_printf_buffer_extra, ptr %9, i32 0, i32 0
  %38 = getelementptr inbounds nuw %struct.rb_printf_sfile, ptr %37, i32 0, i32 1
  store i64 %36, ptr %38, align 8, !tbaa !83
  %39 = load i64, ptr %5, align 8, !tbaa !14
  %40 = inttoptr i64 %39 to ptr
  %41 = getelementptr inbounds nuw %struct.rb_printf_buffer_extra, ptr %9, i32 0, i32 0
  %42 = getelementptr inbounds nuw %struct.rb_printf_sfile, ptr %41, i32 0, i32 4
  %43 = getelementptr inbounds nuw %struct.rb_printf_sbuf, ptr %42, i32 0, i32 0
  store ptr %40, ptr %43, align 8, !tbaa !84
  %44 = load ptr, ptr %6, align 8, !tbaa !18
  %45 = getelementptr inbounds nuw %struct.rb_printf_buffer_extra, ptr %9, i32 0, i32 0
  %46 = getelementptr inbounds nuw %struct.rb_printf_sfile, ptr %45, i32 0, i32 0
  store ptr %44, ptr %46, align 8, !tbaa !85
  %47 = load i64, ptr %5, align 8, !tbaa !14
  call void @RBASIC_CLEAR_CLASS(i64 noundef %47)
  %48 = getelementptr inbounds nuw %struct.rb_printf_buffer_extra, ptr %9, i32 0, i32 0
  %49 = getelementptr inbounds nuw %struct.rb_printf_sfile, ptr %48, i32 0, i32 5
  store ptr @ruby__sfvwrite, ptr %49, align 8, !tbaa !86
  %50 = getelementptr inbounds nuw %struct.rb_printf_buffer_extra, ptr %9, i32 0, i32 0
  %51 = getelementptr inbounds nuw %struct.rb_printf_sfile, ptr %50, i32 0, i32 6
  store ptr @ruby__sfvextra, ptr %51, align 8, !tbaa !87
  %52 = getelementptr inbounds nuw %struct.rb_printf_buffer_extra, ptr %9, i32 0, i32 1
  store volatile i64 0, ptr %52, align 8, !tbaa !88
  %53 = getelementptr inbounds nuw %struct.rb_printf_buffer_extra, ptr %9, i32 0, i32 0
  %54 = load ptr, ptr %7, align 8, !tbaa !18
  %55 = load ptr, ptr %8, align 8, !tbaa !65
  %56 = call i64 @BSD_vfprintf(ptr noundef %53, ptr noundef %54, ptr noundef %55)
  %57 = load i64, ptr %5, align 8, !tbaa !14
  %58 = load i64, ptr %10, align 8, !tbaa !14
  call void @RBASIC_SET_CLASS_RAW(i64 noundef %57, i64 noundef %58)
  %59 = load i64, ptr %5, align 8, !tbaa !14
  %60 = call ptr @RSTRING_PTR(i64 noundef %59)
  store ptr %60, ptr %6, align 8, !tbaa !18
  call void @llvm.lifetime.start.p0(i64 8, ptr %13) #26
  %61 = getelementptr inbounds nuw %struct.rb_printf_buffer_extra, ptr %9, i32 0, i32 0
  %62 = getelementptr inbounds nuw %struct.rb_printf_sfile, ptr %61, i32 0, i32 0
  %63 = load ptr, ptr %62, align 8, !tbaa !85
  %64 = load ptr, ptr %6, align 8, !tbaa !18
  %65 = ptrtoint ptr %63 to i64
  %66 = ptrtoint ptr %64 to i64
  %67 = sub i64 %65, %66
  store i64 %67, ptr %13, align 8, !tbaa !14
  %68 = load i64, ptr %5, align 8, !tbaa !14
  %69 = call i32 @RB_ENC_CODERANGE(i64 noundef %68) #27
  store i32 %69, ptr %11, align 4, !tbaa !7
  %70 = load i32, ptr %11, align 4, !tbaa !7
  %71 = icmp ne i32 %70, 0
  br i1 %71, label %72, label %88

72:                                               ; preds = %29
  %73 = load i64, ptr %12, align 8, !tbaa !14
  %74 = load i64, ptr %13, align 8, !tbaa !14
  %75 = icmp slt i64 %73, %74
  br i1 %75, label %76, label %88

76:                                               ; preds = %72
  %77 = load ptr, ptr %6, align 8, !tbaa !18
  %78 = load i64, ptr %12, align 8, !tbaa !14
  %79 = getelementptr i8, ptr %77, i64 %78
  %80 = load ptr, ptr %6, align 8, !tbaa !18
  %81 = load i64, ptr %13, align 8, !tbaa !14
  %82 = getelementptr i8, ptr %80, i64 %81
  %83 = load i64, ptr %5, align 8, !tbaa !14
  %84 = call ptr @rb_enc_get(i64 noundef %83)
  %85 = call i64 @rb_str_coderange_scan_restartable(ptr noundef %79, ptr noundef %82, ptr noundef %84, ptr noundef %11)
  %86 = load i64, ptr %5, align 8, !tbaa !14
  %87 = load i32, ptr %11, align 4, !tbaa !7
  call void @RB_ENC_CODERANGE_SET(i64 noundef %86, i32 noundef %87)
  br label %88

88:                                               ; preds = %76, %72, %29
  %89 = load i64, ptr %5, align 8, !tbaa !14
  %90 = load i64, ptr %13, align 8, !tbaa !14
  %91 = call i64 @rb_str_resize(i64 noundef %89, i64 noundef %90)
  call void @llvm.lifetime.end.p0(i64 8, ptr %13) #26
  call void @llvm.lifetime.end.p0(i64 8, ptr %12) #26
  call void @llvm.lifetime.end.p0(i64 4, ptr %11) #26
  call void @llvm.lifetime.end.p0(i64 8, ptr %10) #26
  call void @llvm.lifetime.end.p0(i64 64, ptr %9) #26
  ret void
}