; Function Attrs: nounwind sspstrong uwtable
define internal fastcc void @ruby_vsprintf0(i64 noundef %0, ptr noundef %1, ptr noundef nonnull %2, ptr noundef %3) unnamed_addr #0 {
  %5 = alloca %struct.rb_printf_buffer_extra, align 8
  %6 = alloca i32, align 4
  call void @llvm.lifetime.start.p0(i64 64, ptr nonnull %5) #21
  %7 = inttoptr i64 %0 to ptr
  %8 = getelementptr inbounds nuw i8, ptr %7, i64 8
  %9 = load i64, ptr %8, align 8, !tbaa !127
  call void @llvm.lifetime.start.p0(i64 4, ptr nonnull %6) #21
  %10 = load i64, ptr %7, align 8, !tbaa !11
  %11 = and i64 %10, 3145728
  %.not = icmp eq i64 %11, 0
  br i1 %.not, label %19, label %12

12:                                               ; preds = %4
  %13 = and i64 %10, 8192
  %.not.i.i = icmp eq i64 %13, 0
  %14 = getelementptr inbounds nuw i8, ptr %7, i64 24
  br i1 %.not.i.i, label %RSTRING_PTR.exit, label %15

15:                                               ; preds = %12
  %.sroa.2.0.copyload.i = load ptr, ptr %14, align 8
  br label %RSTRING_PTR.exit

RSTRING_PTR.exit:                                 ; preds = %12, %15
  %.sroa.2.0.i = phi ptr [ %.sroa.2.0.copyload.i, %15 ], [ %14, %12 ]
  %16 = ptrtoint ptr %1 to i64
  %17 = ptrtoint ptr %.sroa.2.0.i to i64
  %18 = sub i64 %16, %17
  br label %19

19:                                               ; preds = %RSTRING_PTR.exit, %4
  %.0 = phi i64 [ %18, %RSTRING_PTR.exit ], [ 0, %4 ]
  %20 = getelementptr inbounds nuw i8, ptr %5, i64 16
  store i16 520, ptr %20, align 8, !tbaa !128
  %21 = getelementptr inbounds nuw i8, ptr %5, i64 24
  %22 = getelementptr inbounds nuw i8, ptr %5, i64 32
  store i64 0, ptr %22, align 8, !tbaa !130
  %23 = tail call i64 @rb_str_capacity(i64 noundef %0) #23
  %24 = getelementptr inbounds nuw i8, ptr %5, i64 8
  store i64 %23, ptr %24, align 8, !tbaa !131
  store ptr %7, ptr %21, align 8, !tbaa !132
  store ptr %1, ptr %5, align 8, !tbaa !133
  store i64 0, ptr %8, align 8, !tbaa !7
  %25 = getelementptr inbounds nuw i8, ptr %5, i64 40
  store ptr @ruby__sfvwrite, ptr %25, align 8, !tbaa !134
  %26 = getelementptr inbounds nuw i8, ptr %5, i64 48
  store ptr @ruby__sfvextra, ptr %26, align 8, !tbaa !135
  %27 = getelementptr inbounds nuw i8, ptr %5, i64 56
  store volatile i64 0, ptr %27, align 8, !tbaa !136
  %28 = call fastcc i64 @BSD_vfprintf(ptr noundef %5, ptr noundef %2, ptr noundef %3)
  store i64 %9, ptr %8, align 8, !tbaa !7
  %29 = load i64, ptr %7, align 8, !tbaa !11, !noalias !137
  %30 = and i64 %29, 8192
  %.not.i.i26 = icmp eq i64 %30, 0
  %31 = getelementptr inbounds nuw i8, ptr %7, i64 24
  br i1 %.not.i.i26, label %RSTRING_PTR.exit29, label %32

32:                                               ; preds = %19
  %.sroa.2.0.copyload.i27 = load ptr, ptr %31, align 8
  br label %RSTRING_PTR.exit29

RSTRING_PTR.exit29:                               ; preds = %19, %32
  %.sroa.2.0.i28 = phi ptr [ %.sroa.2.0.copyload.i27, %32 ], [ %31, %19 ]
  %33 = load ptr, ptr %5, align 8, !tbaa !133
  %34 = ptrtoint ptr %33 to i64
  %35 = ptrtoint ptr %.sroa.2.0.i28 to i64
  %36 = sub i64 %34, %35
  %37 = trunc i64 %29 to i32
  %38 = and i32 %37, 3145728
  store i32 %38, ptr %6, align 4, !tbaa !25
  %.not25 = icmp ne i32 %38, 0
  %39 = icmp slt i64 %.0, %36
  %or.cond = select i1 %.not25, i1 %39, i1 false
  br i1 %or.cond, label %40, label %50

40:                                               ; preds = %RSTRING_PTR.exit29
  %41 = getelementptr i8, ptr %.sroa.2.0.i28, i64 %.0
  %42 = getelementptr i8, ptr %.sroa.2.0.i28, i64 %36
  %43 = call ptr @rb_enc_get(i64 noundef %0) #21
  %44 = call i64 @rb_str_coderange_scan_restartable(ptr noundef %41, ptr noundef %42, ptr noundef %43, ptr noundef nonnull %6) #21
  %45 = load i32, ptr %6, align 4, !tbaa !25
  %46 = load i64, ptr %7, align 8, !tbaa !11
  %47 = and i64 %46, -3145729
  %48 = zext i32 %45 to i64
  %49 = or i64 %47, %48
  store i64 %49, ptr %7, align 8, !tbaa !11
  br label %50

50:                                               ; preds = %40, %RSTRING_PTR.exit29
  %51 = call i64 @rb_str_resize(i64 noundef %0, i64 noundef %36) #21
  call void @llvm.lifetime.end.p0(i64 4, ptr nonnull %6) #21
  call void @llvm.lifetime.end.p0(i64 64, ptr nonnull %5) #21
  ret void
}